target datalayout = "e-m:e-p270:32:32-p271:32:32-p272:64:64-i64:64-i128:128-f80:128-n8:16:32:64-S128"
target triple = "x86_64-unknown-linux-gnu"

%struct.ChardevClass = type { %struct.ObjectClass, i8, i8, ptr, ptr, ptr, ptr, ptr, ptr, ptr, ptr, ptr, ptr, ptr, ptr, ptr, ptr, ptr, ptr }
%struct.ObjectClass = type { ptr, ptr, [4 x ptr], [4 x ptr], ptr, ptr }
%struct.ChadevClassFE = type { ptr, ptr }

@.str.2 = private unnamed_addr constant [23 x i8] c"../qemu/chardev/char.c\00", align 1
@.str.4 = private unnamed_addr constant [8 x i8] c"chardev\00", align 1
@.str.104 = private unnamed_addr constant [101 x i8] c"/home/dtcxzyw/WorkSpace/Projects/compilers/llvm-opt-benchmark/bench/qemu/qemu/include/chardev/char.h\00", align 1
@__func__.CHARDEV_CLASS = private unnamed_addr constant [14 x i8] c"CHARDEV_CLASS\00", align 1
@.str.112 = private unnamed_addr constant [9 x i8] c"chardev-\00", align 1
@.str.113 = private unnamed_addr constant [59 x i8] c"g_str_has_prefix(object_class_get_name(klass), \22chardev-\22)\00", align 1
@__PRETTY_FUNCTION__.chardev_class_foreach = private unnamed_addr constant [50 x i8] c"void chardev_class_foreach(ObjectClass *, void *)\00", align 1

; Function Attrs: nounwind sspstrong uwtable
define internal ptr @CHARDEV_CLASS(ptr noundef %klass) #0 {
entry:
  %klass.addr = alloca ptr, align 8
  store ptr %klass, ptr %klass.addr, align 8
  %0 = load ptr, ptr %klass.addr, align 8
  %call = call ptr @object_class_dynamic_cast_assert(ptr noundef %0, ptr noundef @.str.4, ptr noundef @.str.104, i32 noundef 231, ptr noundef @__func__.CHARDEV_CLASS)
  ret ptr %call
}

; Function Attrs: nounwind sspstrong uwtable
define internal void @chardev_class_foreach(ptr noundef %klass, ptr noundef %opaque) #0 {
entry:
  %klass.addr = alloca ptr, align 8
  %opaque.addr = alloca ptr, align 8
  %fe = alloca ptr, align 8
  store ptr %klass, ptr %klass.addr, align 8
  store ptr %opaque, ptr %opaque.addr, align 8
  %0 = load ptr, ptr %opaque.addr, align 8
  store ptr %0, ptr %fe, align 8
  %1 = load ptr, ptr %klass.addr, align 8
  %call = call ptr @object_class_get_name(ptr noundef %1)
  %call1 = call i32 @g_str_has_prefix(ptr noundef %call, ptr noundef @.str.112)
  %tobool = icmp ne i32 %call1, 0
  br i1 %tobool, label %if.then, label %if.else

if.then:                                          ; preds = %entry
  br label %if.end

if.else:                                          ; preds = %entry
  call void @__assert_fail(ptr noundef @.str.113, ptr noundef @.str.2, i32 noundef 544, ptr noundef @__PRETTY_FUNCTION__.chardev_class_foreach) #10
  unreachable

if.end:                                           ; preds = %if.then
  %2 = load ptr, ptr %klass.addr, align 8
  %call2 = call ptr @CHARDEV_CLASS(ptr noundef %2)
  %internal = getelementptr inbounds %struct.ChardevClass, ptr %call2, i32 0, i32 1
  %3 = load i8, ptr %internal, align 8
  %tobool3 = trunc i8 %3 to i1
  br i1 %tobool3, label %if.then4, label %if.end5

if.then4:                                         ; preds = %if.end
  br label %return

if.end5:                                          ; preds = %if.end
  %4 = load ptr, ptr %fe, align 8
  %fn = getelementptr inbounds %struct.ChadevClassFE, ptr %4, i32 0, i32 0
  %5 = load ptr, ptr %fn, align 8
  %6 = load ptr, ptr %klass.addr, align 8
  %call6 = call ptr @object_class_get_name(ptr noundef %6)
  %add.ptr = getelementptr i8, ptr %call6, i64 8
  %7 = load ptr, ptr %fe, align 8
  %opaque7 = getelementptr inbounds %struct.ChadevClassFE, ptr %7, i32 0, i32 1
  %8 = load ptr, ptr %opaque7, align 8
  call void %5(ptr noundef %add.ptr, ptr noundef %8)
  br label %return

return:                                           ; preds = %if.end5, %if.then4
  ret void
}