; Function Attrs: nounwind sspstrong uwtable
define internal void @chardev_class_foreach(ptr noundef %klass, ptr noundef readonly captures(none) %opaque) #0 {
entry:
  %call = tail call ptr @object_class_get_name(ptr noundef %klass) #13
  %call1 = tail call i32 @g_str_has_prefix(ptr noundef %call, ptr noundef nonnull @.str.112) #13
  %tobool.not = icmp eq i32 %call1, 0
  br i1 %tobool.not, label %if.else, label %if.end

if.else:                                          ; preds = %entry
  tail call void @__assert_fail(ptr noundef nonnull @.str.113, ptr noundef nonnull @.str.2, i32 noundef 544, ptr noundef nonnull @__PRETTY_FUNCTION__.chardev_class_foreach) #14
  unreachable

if.end:                                           ; preds = %entry
  %call.i = tail call ptr @object_class_dynamic_cast_assert(ptr noundef %klass, ptr noundef nonnull @.str.4, ptr noundef nonnull @.str.104, i32 noundef 231, ptr noundef nonnull @__func__.CHARDEV_CLASS) #13
  %internal = getelementptr inbounds nuw i8, ptr %call.i, i64 96
  %0 = load i8, ptr %internal, align 8
  %tobool3 = trunc i8 %0 to i1
  br i1 %tobool3, label %return, label %if.end5

if.end5:                                          ; preds = %if.end
  %1 = load ptr, ptr %opaque, align 8
  %call6 = tail call ptr @object_class_get_name(ptr noundef %klass) #13
  %add.ptr = getelementptr i8, ptr %call6, i64 8
  %opaque7 = getelementptr inbounds nuw i8, ptr %opaque, i64 8
  %2 = load ptr, ptr %opaque7, align 8
  tail call void %1(ptr noundef %add.ptr, ptr noundef %2) #13
  br label %return

return:                                           ; preds = %if.end, %if.end5
  ret void
}